target datalayout = "e-m:e-p270:32:32-p271:32:32-p272:64:64-i64:64-i128:128-f80:128-n8:16:32:64-S128"
target triple = "x86_64-unknown-linux-gnu"

%struct.pcpu_hot = type { %union.anon }
%union.anon = type { %struct.anon, [16 x i8] }
%struct.anon = type { ptr, i32, i32, i64, i64, ptr, i16, i8 }
%struct.x86_init_ops = type { %struct.x86_init_resources, %struct.x86_init_mpparse, %struct.x86_init_irqs, %struct.x86_init_oem, %struct.x86_init_paging, %struct.x86_init_timers, %struct.x86_init_iommu, %struct.x86_init_pci, %struct.x86_hyper_init, %struct.x86_init_acpi }
%struct.x86_init_resources = type { ptr, ptr, ptr }
%struct.x86_init_mpparse = type { ptr, ptr, ptr }
%struct.x86_init_irqs = type { ptr, ptr, ptr, ptr, ptr }
%struct.x86_init_oem = type { ptr, ptr }
%struct.x86_init_paging = type { ptr }
%struct.x86_init_timers = type { ptr, ptr, ptr }
%struct.x86_init_iommu = type { ptr }
%struct.x86_init_pci = type { ptr, ptr, ptr, ptr }
%struct.x86_hyper_init = type { ptr, ptr, ptr, ptr, ptr, ptr }
%struct.x86_init_acpi = type { ptr, ptr, ptr }

@vector_irq = dso_local global [256 x ptr] zeroinitializer, section ".data..percpu", align 16
@legacy_pic = external dso_local local_unnamed_addr global ptr, align 8
@__per_cpu_offset = external dso_local local_unnamed_addr global [64 x i64], align 16
@pcpu_hot = external dso_local global %struct.pcpu_hot, section ".data..percpu..shared_aligned", align 64
@.str.1 = private unnamed_addr constant [26 x i8] c"arch/x86/kernel/irqinit.c\00", align 1
@x86_init = external dso_local local_unnamed_addr global %struct.x86_init_ops, align 8
@acpi_ioapic = external dso_local local_unnamed_addr global i32, align 4
@.str.2 = private unnamed_addr constant [8 x i8] c"cascade\00", align 1
@.str.3 = private unnamed_addr constant [28 x i8] c"\013%s: request_irq() failed\0A\00", align 1

; Function Attrs: cold fn_ret_thunk_extern nounwind null_pointer_is_valid optsize
define dso_local void @init_ISA_irqs() local_unnamed_addr #0 section ".init.text" align 16 {
  %1 = load ptr, ptr @legacy_pic, align 8
  %2 = getelementptr inbounds i8, ptr %1, i64 8
  %3 = load ptr, ptr %2, align 8
  tail call void @init_bsp_APIC() #3
  %4 = load ptr, ptr @legacy_pic, align 8
  %5 = getelementptr inbounds i8, ptr %4, i64 48
  %6 = load ptr, ptr %5, align 8
  tail call void %6(i32 noundef 0) #3
  %7 = load ptr, ptr @legacy_pic, align 8
  %8 = load i32, ptr %7, align 8
  %9 = icmp sgt i32 %8, 0
  br i1 %9, label %10, label %16

10:                                               ; preds = %10, %0
  %11 = phi i32 [ %12, %10 ], [ 0, %0 ]
  tail call void @irq_set_chip_and_handler_name(i32 noundef %11, ptr noundef %3, ptr noundef nonnull @handle_level_irq, ptr noundef null) #3
  tail call void @irq_modify_status(i32 noundef %11, i64 noundef 0, i64 noundef 256) #3
  %12 = add nuw nsw i32 %11, 1
  %13 = load ptr, ptr @legacy_pic, align 8
  %14 = load i32, ptr %13, align 8
  %15 = icmp slt i32 %12, %14
  br i1 %15, label %10, label %16, !llvm.loop !5

16:                                               ; preds = %10, %0
  ret void
}

; Function Attrs: null_pointer_is_valid
declare dso_local void @init_bsp_APIC() local_unnamed_addr #1

; Function Attrs: null_pointer_is_valid
declare dso_local void @handle_level_irq(ptr noundef) #1

; Function Attrs: cold fn_ret_thunk_extern nounwind null_pointer_is_valid optsize
define dso_local void @init_IRQ() local_unnamed_addr #0 section ".init.text" align 16 {
  %1 = load ptr, ptr @legacy_pic, align 8
  %2 = load i32, ptr %1, align 8
  %3 = icmp sgt i32 %2, 0
  br i1 %3, label %4, label %20

4:                                                ; preds = %4, %0
  %5 = phi i64 [ %15, %4 ], [ 0, %0 ]
  %6 = trunc i64 %5 to i32
  %7 = tail call ptr @irq_to_desc(i32 noundef %6) #3
  %8 = load i64, ptr @__per_cpu_offset, align 16
  %9 = add i64 %8, ptrtoint (ptr @vector_irq to i64)
  %10 = inttoptr i64 %9 to ptr
  %11 = shl i64 %5, 32
  %12 = add i64 %11, 206158430208
  %13 = ashr exact i64 %12, 32
  %14 = getelementptr [256 x ptr], ptr %10, i64 0, i64 %13
  store ptr %7, ptr %14, align 8
  %15 = add nuw nsw i64 %5, 1
  %16 = load ptr, ptr @legacy_pic, align 8
  %17 = load i32, ptr %16, align 8
  %18 = sext i32 %17 to i64
  %19 = icmp slt i64 %15, %18
  br i1 %19, label %4, label %20, !llvm.loop !8

20:                                               ; preds = %4, %0
  %21 = tail call i32 asm "movl %gs:$1, $0", "=r,*m,~{dirflag},~{fpsr},~{flags}"(ptr nonnull elementtype(i32) getelementptr inbounds (%struct.pcpu_hot, ptr @pcpu_hot, i64 0, i32 0, i32 0, i32 2)) #4, !srcloc !9
  %22 = tail call i32 @irq_init_percpu_irqstack(i32 noundef %21) #3
  %23 = icmp eq i32 %22, 0
  br i1 %23, label %25, label %24, !prof !10

24:                                               ; preds = %20
  tail call void asm sideeffect "498: nop\0A\09.pushsection .discard.instr_begin\0A\09.long 498b - .\0A\09.popsection\0A\09", "i,~{dirflag},~{fpsr},~{flags}"(i32 498) #3, !srcloc !11
  tail call void asm sideeffect "1:\09.byte 0x0f, 0x0b\0A.pushsection __bug_table,\22aw\22\0A2:\09.long 1b - .\09# bug_entry::bug_addr\0A\09.long ${0:c} - .\09# bug_entry::file\0A\09.word ${1:c}\09# bug_entry::line\0A\09.word ${2:c}\09# bug_entry::flags\0A\09.org 2b+${3:c}\0A.popsection\0A", "i,i,i,i,~{dirflag},~{fpsr},~{flags}"(ptr nonnull @.str.1, i32 89, i32 0, i64 12) #3, !srcloc !12
  unreachable

25:                                               ; preds = %20
  %26 = load ptr, ptr getelementptr inbounds (%struct.x86_init_ops, ptr @x86_init, i64 0, i32 2, i32 1), align 8
  tail call void %26() #3
  ret void
}

; Function Attrs: null_pointer_is_valid
declare dso_local ptr @irq_to_desc(i32 noundef) local_unnamed_addr #1

; Function Attrs: null_pointer_is_valid
declare dso_local i32 @irq_init_percpu_irqstack(i32 noundef) local_unnamed_addr #1

; Function Attrs: cold fn_ret_thunk_extern nounwind null_pointer_is_valid optsize
define dso_local void @native_init_IRQ() local_unnamed_addr #0 section ".init.text" align 16 {
  %1 = load ptr, ptr getelementptr inbounds (%struct.x86_init_ops, ptr @x86_init, i64 0, i32 2), align 8
  tail call void %1() #3
  tail call void @idt_setup_apic_and_irq_gates() #3
  tail call void @lapic_assign_system_vectors() #3
  %2 = load i32, ptr @acpi_ioapic, align 4
  %3 = icmp eq i32 %2, 0
  br i1 %3, label %4, label %13

4:                                                ; preds = %0
  %5 = load ptr, ptr @legacy_pic, align 8
  %6 = load i32, ptr %5, align 8
  %7 = icmp eq i32 %6, 0
  br i1 %7, label %13, label %8

8:                                                ; preds = %4
  %9 = tail call i32 @request_threaded_irq(i32 noundef 2, ptr noundef nonnull @no_action, ptr noundef null, i64 noundef 65536, ptr noundef nonnull @.str.2, ptr noundef null) #3
  %10 = icmp eq i32 %9, 0
  br i1 %10, label %13, label %11

11:                                               ; preds = %8
  %12 = tail call i32 (ptr, ...) @_printk(ptr noundef nonnull @.str.3, ptr noundef nonnull @.str.2) #5
  br label %13

13:                                               ; preds = %11, %8, %4, %0
  ret void
}

; Function Attrs: null_pointer_is_valid
declare dso_local void @idt_setup_apic_and_irq_gates() local_unnamed_addr #1

; Function Attrs: null_pointer_is_valid
declare dso_local void @lapic_assign_system_vectors() local_unnamed_addr #1

; Function Attrs: null_pointer_is_valid
declare dso_local i32 @no_action(i32 noundef, ptr noundef) #1

; Function Attrs: cold null_pointer_is_valid
declare dso_local i32 @_printk(ptr noundef, ...) local_unnamed_addr #2

; Function Attrs: null_pointer_is_valid
declare dso_local void @irq_set_chip_and_handler_name(i32 noundef, ptr noundef, ptr noundef, ptr noundef) local_unnamed_addr #1

; Function Attrs: null_pointer_is_valid
declare dso_local void @irq_modify_status(i32 noundef, i64 noundef, i64 noundef) local_unnamed_addr #1

; Function Attrs: null_pointer_is_valid
declare dso_local i32 @request_threaded_irq(i32 noundef, ptr noundef, ptr noundef, i64 noundef, ptr noundef, ptr noundef) local_unnamed_addr #1


!llvm.module.flags = !{!0, !1, !2, !3, !4}

!0 = !{i32 1, !"wchar_size", i32 2}
!1 = !{i32 8, !"cf-protection-branch", i32 1}
!2 = !{i32 4, !"function_return_thunk_extern", i32 1}
!3 = !{i32 4, !"indirect_branch_cs_prefix", i32 1}
!4 = !{i32 4, !"SkipRaxSetup", i32 1}
!5 = distinct !{!5, !6, !7}
!6 = !{!"llvm.loop.mustprogress"}
!7 = !{!"llvm.loop.unroll.disable"}
!8 = distinct !{!8, !6, !7}
!9 = !{i64 2157781111}
!10 = !{!"branch_weights", i32 2000, i32 1}
!11 = !{i64 2157782087, i64 2157781896, i64 2157781948, i64 2157781994, i64 2157782022}
!12 = !{i64 2157782161, i64 2157782190, i64 2157782236, i64 2157782294, i64 2157782348, i64 2157782402, i64 2157782457, i64 2157782488}
